target datalayout = "e-m:e-p270:32:32-p271:32:32-p272:64:64-i64:64-i128:128-f80:128-n8:16:32:64-S128"
target triple = "x86_64-pc-linux-gnu"

%struct.H5C_cache_entry_t = type { ptr, i64, i64, ptr, i8, ptr, i8, i8, i8, i8, i32, i8, i8, i8, i8, i8, i32, ptr, i32, i32, i32, i32, i32, i8, i8, ptr, ptr, ptr, ptr, ptr, ptr, i8, i32, i8, i64, ptr, i64, i64, i32, i8, i32, i32, i8, ptr, ptr, ptr }
%struct.H5FS_sinfo_t = type { %struct.H5C_cache_entry_t, ptr, i8, i32, i64, i64, i64, i64, i32, i32, i32, ptr, ptr }
%struct.H5FS_iter_ud_t = type { ptr, ptr, i32 }
%struct.H5FS_node_t = type { i64, i64, i64, ptr }

@.str.2 = private unnamed_addr constant [103 x i8] c"generated/home/dtcxzyw/WorkSpace/Projects/compilers/llvm-opt-benchmark/bench/hdf5/hdf5/src/H5FScache.c\00", align 1
@H5E_FSPACE_g = external global i64, align 8
@H5E_BADITER_g = external global i64, align 8
@__func__.H5FS__sinfo_serialize_node_cb = private unnamed_addr constant [30 x i8] c"H5FS__sinfo_serialize_node_cb\00", align 1
@.str.29 = private unnamed_addr constant [33 x i8] c"can't iterate over section nodes\00", align 1

; Function Attrs: nounwind uwtable
define internal i32 @H5FS__sinfo_serialize_node_cb(ptr noundef %0, ptr noundef %1, ptr noundef %2) #0 {
  %4 = alloca ptr, align 8
  %5 = alloca ptr, align 8
  %6 = alloca ptr, align 8
  %7 = alloca ptr, align 8
  %8 = alloca ptr, align 8
  %9 = alloca i32, align 4
  %10 = alloca i8, align 1
  %11 = alloca i64, align 8
  %12 = alloca i64, align 8
  %13 = alloca ptr, align 8
  %14 = alloca i64, align 8
  %15 = alloca i64, align 8
  %16 = alloca ptr, align 8
  store ptr %0, ptr %4, align 8
  store ptr %1, ptr %5, align 8
  store ptr %2, ptr %6, align 8
  %17 = load ptr, ptr %4, align 8
  store ptr %17, ptr %7, align 8
  %18 = load ptr, ptr %6, align 8
  store ptr %18, ptr %8, align 8
  store i32 0, ptr %9, align 4
  store i8 0, ptr %10, align 1
  %19 = load ptr, ptr %7, align 8
  %20 = getelementptr inbounds %struct.H5FS_node_t, ptr %19, i32 0, i32 1
  %21 = load i64, ptr %20, align 8
  %22 = icmp ugt i64 %21, 0
  br i1 %22, label %23, label %130

23:                                               ; preds = %3
  br label %24

24:                                               ; preds = %23
  %25 = load ptr, ptr %7, align 8
  %26 = getelementptr inbounds %struct.H5FS_node_t, ptr %25, i32 0, i32 1
  %27 = load i64, ptr %26, align 8
  store i64 %27, ptr %11, align 8
  %28 = load ptr, ptr %8, align 8
  %29 = getelementptr inbounds %struct.H5FS_iter_ud_t, ptr %28, i32 0, i32 1
  %30 = load ptr, ptr %29, align 8
  %31 = load ptr, ptr %30, align 8
  store ptr %31, ptr %13, align 8
  store i64 0, ptr %12, align 8
  br label %32

32:                                               ; preds = %45, %24
  %33 = load i64, ptr %12, align 8
  %34 = load ptr, ptr %8, align 8
  %35 = getelementptr inbounds %struct.H5FS_iter_ud_t, ptr %34, i32 0, i32 2
  %36 = load i32, ptr %35, align 8
  %37 = zext i32 %36 to i64
  %38 = icmp ult i64 %33, %37
  br i1 %38, label %39, label %50

39:                                               ; preds = %32
  %40 = load i64, ptr %11, align 8
  %41 = and i64 %40, 255
  %42 = trunc i64 %41 to i8
  %43 = load ptr, ptr %13, align 8
  %44 = getelementptr inbounds i8, ptr %43, i32 1
  store ptr %44, ptr %13, align 8
  store i8 %42, ptr %43, align 1
  br label %45

45:                                               ; preds = %39
  %46 = load i64, ptr %12, align 8
  %47 = add i64 %46, 1
  store i64 %47, ptr %12, align 8
  %48 = load i64, ptr %11, align 8
  %49 = lshr i64 %48, 8
  store i64 %49, ptr %11, align 8
  br label %32

50:                                               ; preds = %32
  %51 = load ptr, ptr %8, align 8
  %52 = getelementptr inbounds %struct.H5FS_iter_ud_t, ptr %51, i32 0, i32 1
  %53 = load ptr, ptr %52, align 8
  %54 = load ptr, ptr %53, align 8
  %55 = load ptr, ptr %8, align 8
  %56 = getelementptr inbounds %struct.H5FS_iter_ud_t, ptr %55, i32 0, i32 2
  %57 = load i32, ptr %56, align 8
  %58 = zext i32 %57 to i64
  %59 = getelementptr inbounds i8, ptr %54, i64 %58
  %60 = load ptr, ptr %8, align 8
  %61 = getelementptr inbounds %struct.H5FS_iter_ud_t, ptr %60, i32 0, i32 1
  %62 = load ptr, ptr %61, align 8
  store ptr %59, ptr %62, align 8
  br label %63

63:                                               ; preds = %50
  br label %64

64:                                               ; preds = %63
  %65 = load ptr, ptr %7, align 8
  %66 = getelementptr inbounds %struct.H5FS_node_t, ptr %65, i32 0, i32 0
  %67 = load i64, ptr %66, align 8
  store i64 %67, ptr %14, align 8
  %68 = load ptr, ptr %8, align 8
  %69 = getelementptr inbounds %struct.H5FS_iter_ud_t, ptr %68, i32 0, i32 1
  %70 = load ptr, ptr %69, align 8
  %71 = load ptr, ptr %70, align 8
  store ptr %71, ptr %16, align 8
  store i64 0, ptr %15, align 8
  br label %72

72:                                               ; preds = %87, %64
  %73 = load i64, ptr %15, align 8
  %74 = load ptr, ptr %8, align 8
  %75 = getelementptr inbounds %struct.H5FS_iter_ud_t, ptr %74, i32 0, i32 0
  %76 = load ptr, ptr %75, align 8
  %77 = getelementptr inbounds %struct.H5FS_sinfo_t, ptr %76, i32 0, i32 10
  %78 = load i32, ptr %77, align 8
  %79 = zext i32 %78 to i64
  %80 = icmp ult i64 %73, %79
  br i1 %80, label %81, label %92

81:                                               ; preds = %72
  %82 = load i64, ptr %14, align 8
  %83 = and i64 %82, 255
  %84 = trunc i64 %83 to i8
  %85 = load ptr, ptr %16, align 8
  %86 = getelementptr inbounds i8, ptr %85, i32 1
  store ptr %86, ptr %16, align 8
  store i8 %84, ptr %85, align 1
  br label %87

87:                                               ; preds = %81
  %88 = load i64, ptr %15, align 8
  %89 = add i64 %88, 1
  store i64 %89, ptr %15, align 8
  %90 = load i64, ptr %14, align 8
  %91 = lshr i64 %90, 8
  store i64 %91, ptr %14, align 8
  br label %72

92:                                               ; preds = %72
  %93 = load ptr, ptr %8, align 8
  %94 = getelementptr inbounds %struct.H5FS_iter_ud_t, ptr %93, i32 0, i32 1
  %95 = load ptr, ptr %94, align 8
  %96 = load ptr, ptr %95, align 8
  %97 = load ptr, ptr %8, align 8
  %98 = getelementptr inbounds %struct.H5FS_iter_ud_t, ptr %97, i32 0, i32 0
  %99 = load ptr, ptr %98, align 8
  %100 = getelementptr inbounds %struct.H5FS_sinfo_t, ptr %99, i32 0, i32 10
  %101 = load i32, ptr %100, align 8
  %102 = zext i32 %101 to i64
  %103 = getelementptr inbounds i8, ptr %96, i64 %102
  %104 = load ptr, ptr %8, align 8
  %105 = getelementptr inbounds %struct.H5FS_iter_ud_t, ptr %104, i32 0, i32 1
  %106 = load ptr, ptr %105, align 8
  store ptr %103, ptr %106, align 8
  br label %107

107:                                              ; preds = %92
  %108 = load ptr, ptr %7, align 8
  %109 = getelementptr inbounds %struct.H5FS_node_t, ptr %108, i32 0, i32 3
  %110 = load ptr, ptr %109, align 8
  %111 = load ptr, ptr %8, align 8
  %112 = call i32 @H5SL_iterate(ptr noundef %110, ptr noundef @H5FS__sinfo_serialize_sect_cb, ptr noundef %111)
  %113 = icmp slt i32 %112, 0
  br i1 %113, label %114, label %129

114:                                              ; preds = %107
  br label %115

115:                                              ; preds = %114
  br label %116

116:                                              ; preds = %115
  br label %117

117:                                              ; preds = %116
  %118 = load i64, ptr @H5E_FSPACE_g, align 8
  %119 = load i64, ptr @H5E_BADITER_g, align 8
  %120 = call i32 (ptr, ptr, i32, i64, i64, ptr, ...) @H5E_printf_stack(ptr noundef @.str.2, ptr noundef @__func__.H5FS__sinfo_serialize_node_cb, i32 noundef 1446, i64 noundef %118, i64 noundef %119, ptr noundef @.str.29)
  br label %121

121:                                              ; preds = %117
  store i8 1, ptr %10, align 1
  %122 = load i8, ptr %10, align 1
  %123 = trunc i8 %122 to i1
  %124 = zext i1 %123 to i8
  store i8 %124, ptr %10, align 1
  br label %125

125:                                              ; preds = %121
  br label %126

126:                                              ; preds = %125
  store i32 -1, ptr %9, align 4
  br label %131

127:                                              ; No predecessors!
  br label %128

128:                                              ; preds = %127
  br label %129

129:                                              ; preds = %128, %107
  br label %130

130:                                              ; preds = %129, %3
  br label %131

131:                                              ; preds = %130, %126
  %132 = load i32, ptr %9, align 4
  ret i32 %132
}