; Function Attrs: nounwind uwtable
define internal range(i32 -1, 1) i32 @H5FS__sinfo_serialize_node_cb(ptr nocapture noundef readonly %0, ptr nocapture readnone %1, ptr noundef %2) #0 {
  %4 = getelementptr inbounds i8, ptr %0, i64 8
  %5 = load i64, ptr %4, align 8
  %.not = icmp eq i64 %5, 0
  br i1 %.not, label %48, label %6

6:                                                ; preds = %3
  %7 = getelementptr inbounds i8, ptr %2, i64 8
  %8 = load ptr, ptr %7, align 8
  %9 = load ptr, ptr %8, align 8
  %10 = getelementptr inbounds i8, ptr %2, i64 16
  %11 = load i32, ptr %10, align 8
  %.not48 = icmp eq i32 %11, 0
  br i1 %.not48, label %._crit_edge, label %.lr.ph

.lr.ph:                                           ; preds = %6, %.lr.ph
  %.03040 = phi ptr [ %13, %.lr.ph ], [ %9, %6 ]
  %.03139 = phi i64 [ %14, %.lr.ph ], [ 0, %6 ]
  %.03238 = phi i64 [ %15, %.lr.ph ], [ %5, %6 ]
  %12 = trunc i64 %.03238 to i8
  %13 = getelementptr inbounds i8, ptr %.03040, i64 1
  store i8 %12, ptr %.03040, align 1
  %14 = add nuw nsw i64 %.03139, 1
  %15 = lshr i64 %.03238, 8
  %16 = load i32, ptr %10, align 8
  %17 = zext i32 %16 to i64
  %18 = icmp ult i64 %14, %17
  br i1 %18, label %.lr.ph, label %._crit_edge.loopexit

._crit_edge.loopexit:                             ; preds = %.lr.ph
  %.pre = load ptr, ptr %7, align 8
  %.pre52 = load ptr, ptr %.pre, align 8
  br label %._crit_edge

._crit_edge:                                      ; preds = %._crit_edge.loopexit, %6
  %19 = phi ptr [ %9, %6 ], [ %.pre52, %._crit_edge.loopexit ]
  %20 = phi ptr [ %8, %6 ], [ %.pre, %._crit_edge.loopexit ]
  %.lcssa37 = phi i64 [ 0, %6 ], [ %17, %._crit_edge.loopexit ]
  %21 = getelementptr inbounds i8, ptr %19, i64 %.lcssa37
  store ptr %21, ptr %20, align 8
  %22 = load ptr, ptr %7, align 8
  %23 = load ptr, ptr %22, align 8
  %24 = load ptr, ptr %2, align 8
  %25 = getelementptr inbounds i8, ptr %24, i64 304
  %26 = load i32, ptr %25, align 8
  %.not49 = icmp eq i32 %26, 0
  br i1 %.not49, label %._crit_edge46, label %.lr.ph45.preheader

.lr.ph45.preheader:                               ; preds = %._crit_edge
  %27 = load i64, ptr %0, align 8
  br label %.lr.ph45

.lr.ph45:                                         ; preds = %.lr.ph45.preheader, %.lr.ph45
  %.043 = phi ptr [ %29, %.lr.ph45 ], [ %23, %.lr.ph45.preheader ]
  %.02842 = phi i64 [ %30, %.lr.ph45 ], [ 0, %.lr.ph45.preheader ]
  %.02941 = phi i64 [ %31, %.lr.ph45 ], [ %27, %.lr.ph45.preheader ]
  %28 = trunc i64 %.02941 to i8
  %29 = getelementptr inbounds i8, ptr %.043, i64 1
  store i8 %28, ptr %.043, align 1
  %30 = add nuw nsw i64 %.02842, 1
  %31 = lshr i64 %.02941, 8
  %32 = load ptr, ptr %2, align 8
  %33 = getelementptr inbounds i8, ptr %32, i64 304
  %34 = load i32, ptr %33, align 8
  %35 = zext i32 %34 to i64
  %36 = icmp ult i64 %30, %35
  br i1 %36, label %.lr.ph45, label %._crit_edge46.loopexit

._crit_edge46.loopexit:                           ; preds = %.lr.ph45
  %.pre53 = load ptr, ptr %7, align 8
  %.pre54 = load ptr, ptr %.pre53, align 8
  br label %._crit_edge46

._crit_edge46:                                    ; preds = %._crit_edge46.loopexit, %._crit_edge
  %37 = phi ptr [ %23, %._crit_edge ], [ %.pre54, %._crit_edge46.loopexit ]
  %38 = phi ptr [ %22, %._crit_edge ], [ %.pre53, %._crit_edge46.loopexit ]
  %.lcssa = phi i64 [ 0, %._crit_edge ], [ %35, %._crit_edge46.loopexit ]
  %39 = getelementptr inbounds i8, ptr %37, i64 %.lcssa
  store ptr %39, ptr %38, align 8
  %40 = getelementptr inbounds i8, ptr %0, i64 24
  %41 = load ptr, ptr %40, align 8
  %42 = tail call i32 @H5SL_iterate(ptr noundef %41, ptr noundef nonnull @H5FS__sinfo_serialize_sect_cb, ptr noundef nonnull %2) #7
  %43 = icmp slt i32 %42, 0
  br i1 %43, label %44, label %48

44:                                               ; preds = %._crit_edge46
  %45 = load i64, ptr @H5E_FSPACE_g, align 8
  %46 = load i64, ptr @H5E_BADITER_g, align 8
  %47 = tail call i32 (ptr, ptr, i32, i64, i64, ptr, ...) @H5E_printf_stack(ptr noundef nonnull @.str.2, ptr noundef nonnull @__func__.H5FS__sinfo_serialize_node_cb, i32 noundef 1446, i64 noundef %45, i64 noundef %46, ptr noundef nonnull @.str.29) #7
  br label %48

48:                                               ; preds = %3, %._crit_edge46, %44
  %.033 = phi i32 [ -1, %44 ], [ 0, %._crit_edge46 ], [ 0, %3 ]
  ret i32 %.033
}